target datalayout = "e-m:e-p270:32:32-p271:32:32-p272:64:64-i64:64-i128:128-f80:128-n8:16:32:64-S128"
target triple = "x86_64-pc-linux-gnu"

%union.pthread_mutex_t = type { %struct.__pthread_mutex_s }
%struct.__pthread_mutex_s = type { i32, i32, i32, i32, i32, i16, i16, %struct.__pthread_internal_list }
%struct.__pthread_internal_list = type { ptr, ptr }
%struct.Wla_Man_t_ = type { ptr, ptr, ptr, ptr, ptr, ptr, ptr, ptr, ptr, ptr, i32, i32, i32, i32, i32, i32, i64, i64, i64 }
%struct.Saig_ParBmc_t_ = type { i32, i32, i32, i32, i32, i32, i32, i32, i32, i32, i32, i32, i32, i32, i32, i32, i32, i32, i32, i32, i32, i32, i32, ptr, i32, i32, i32, i32, i64, ptr, i32, ptr }
%struct.Bmc3_ThData_t_ = type { ptr, ptr, ptr, i32, i32 }
%struct.Wlc_Par_t_ = type { i32, i32, i32, i32, i32, i32, i32, i32, i32, i32, i32, i32, i32, i32, i32, i32, i32, i32, i32, i32, i32, i32, i32, ptr }
%struct.Abc_Ntk_t_ = type { i32, i32, ptr, ptr, ptr, ptr, ptr, ptr, ptr, ptr, ptr, ptr, ptr, [11 x i32], i32, i32, i32, i32, ptr, i32, ptr, ptr, i32, i32, i32, double, i32, %struct.Vec_Int_t_, ptr, ptr, ptr, ptr, ptr, float, i32, ptr, ptr, ptr, ptr, ptr, ptr, ptr, ptr, ptr, ptr, ptr, ptr, ptr, ptr, ptr, ptr, ptr, ptr, ptr, ptr, ptr }
%struct.Vec_Int_t_ = type { i32, i32, ptr }

@g_nRunIds = internal global i32 0, align 4
@g_mutex = external global %union.pthread_mutex_t, align 8
@.str = private unnamed_addr constant [27 x i8] c"Bmc3 found CEX. RunId=%d.\0A\00", align 1
@.str.1 = private unnamed_addr constant [31 x i8] c"Bmc3 was cancelled. RunId=%d.\0A\00", align 1

; Function Attrs: nounwind uwtable
define ptr @Wla_Bmc3Thread(ptr noundef %0) #0 {
  %2 = alloca ptr, align 8
  %3 = alloca i32, align 4
  %4 = alloca i32, align 4
  %5 = alloca i32, align 4
  %6 = alloca ptr, align 8
  %7 = alloca ptr, align 8
  %8 = alloca %struct.Saig_ParBmc_t_, align 8
  %9 = alloca ptr, align 8
  store ptr %0, ptr %2, align 8
  store i32 -1, ptr %4, align 4
  store i32 10, ptr %5, align 4
  %10 = load ptr, ptr %2, align 8
  store ptr %10, ptr %6, align 8
  %11 = load ptr, ptr %6, align 8
  %12 = getelementptr inbounds %struct.Bmc3_ThData_t_, ptr %11, i32 0, i32 1
  %13 = load ptr, ptr %12, align 8
  %14 = call ptr @Abc_NtkFromAigPhase(ptr noundef %13)
  store ptr %14, ptr %7, align 8
  store ptr %8, ptr %9, align 8
  %15 = load ptr, ptr %9, align 8
  call void @Saig_ParBmcSetDefaultParams(ptr noundef %15)
  %16 = load ptr, ptr %9, align 8
  %17 = getelementptr inbounds %struct.Saig_ParBmc_t_, ptr %16, i32 0, i32 31
  store ptr @Wla_CallBackToStop, ptr %17, align 8
  %18 = load ptr, ptr %6, align 8
  %19 = getelementptr inbounds %struct.Bmc3_ThData_t_, ptr %18, i32 0, i32 3
  %20 = load i32, ptr %19, align 8
  %21 = load ptr, ptr %9, align 8
  %22 = getelementptr inbounds %struct.Saig_ParBmc_t_, ptr %21, i32 0, i32 30
  store i32 %20, ptr %22, align 8
  %23 = load ptr, ptr %6, align 8
  %24 = getelementptr inbounds %struct.Bmc3_ThData_t_, ptr %23, i32 0, i32 0
  %25 = load ptr, ptr %24, align 8
  %26 = getelementptr inbounds %struct.Wla_Man_t_, ptr %25, i32 0, i32 1
  %27 = load ptr, ptr %26, align 8
  %28 = getelementptr inbounds %struct.Wlc_Par_t_, ptr %27, i32 0, i32 18
  %29 = load i32, ptr %28, align 8
  %30 = icmp ne i32 %29, 0
  br i1 %30, label %31, label %41

31:                                               ; preds = %1
  %32 = load ptr, ptr %6, align 8
  %33 = getelementptr inbounds %struct.Bmc3_ThData_t_, ptr %32, i32 0, i32 0
  %34 = load ptr, ptr %33, align 8
  %35 = getelementptr inbounds %struct.Wla_Man_t_, ptr %34, i32 0, i32 10
  %36 = load i32, ptr %35, align 8
  %37 = load i32, ptr %5, align 4
  %38 = add nsw i32 %36, %37
  %39 = load ptr, ptr %9, align 8
  %40 = getelementptr inbounds %struct.Saig_ParBmc_t_, ptr %39, i32 0, i32 1
  store i32 %38, ptr %40, align 4
  br label %41

41:                                               ; preds = %31, %1
  %42 = load ptr, ptr %7, align 8
  %43 = load ptr, ptr %9, align 8
  %44 = call i32 @Abc_NtkDarBmc3(ptr noundef %42, ptr noundef %43, i32 noundef 0)
  store i32 %44, ptr %4, align 4
  %45 = load i32, ptr %4, align 4
  %46 = icmp eq i32 %45, 0
  br i1 %46, label %47, label %69

47:                                               ; preds = %41
  %48 = load ptr, ptr %7, align 8
  %49 = getelementptr inbounds %struct.Abc_Ntk_t_, ptr %48, i32 0, i32 38
  %50 = load ptr, ptr %49, align 8
  %51 = load ptr, ptr %6, align 8
  %52 = getelementptr inbounds %struct.Bmc3_ThData_t_, ptr %51, i32 0, i32 2
  %53 = load ptr, ptr %52, align 8
  store ptr %50, ptr %53, align 8
  %54 = load ptr, ptr %7, align 8
  %55 = getelementptr inbounds %struct.Abc_Ntk_t_, ptr %54, i32 0, i32 38
  store ptr null, ptr %55, align 8
  %56 = load ptr, ptr %6, align 8
  %57 = getelementptr inbounds %struct.Bmc3_ThData_t_, ptr %56, i32 0, i32 4
  %58 = load i32, ptr %57, align 4
  %59 = icmp ne i32 %58, 0
  br i1 %59, label %60, label %64

60:                                               ; preds = %47
  %61 = load ptr, ptr %6, align 8
  %62 = getelementptr inbounds %struct.Bmc3_ThData_t_, ptr %61, i32 0, i32 3
  %63 = load i32, ptr %62, align 8
  call void (i32, ptr, ...) @Abc_Print(i32 noundef 1, ptr noundef @.str, i32 noundef %63)
  br label %64

64:                                               ; preds = %60, %47
  %65 = call i32 @pthread_mutex_lock(ptr noundef @g_mutex) #8
  store i32 %65, ptr %3, align 4
  %66 = load volatile i32, ptr @g_nRunIds, align 4
  %67 = add nsw i32 %66, 1
  store volatile i32 %67, ptr @g_nRunIds, align 4
  %68 = call i32 @pthread_mutex_unlock(ptr noundef @g_mutex) #8
  store i32 %68, ptr %3, align 4
  br label %136

69:                                               ; preds = %41
  %70 = load i32, ptr %4, align 4
  %71 = icmp eq i32 %70, -1
  br i1 %71, label %72, label %135

72:                                               ; preds = %69
  %73 = load ptr, ptr %6, align 8
  %74 = getelementptr inbounds %struct.Bmc3_ThData_t_, ptr %73, i32 0, i32 3
  %75 = load i32, ptr %74, align 8
  %76 = load volatile i32, ptr @g_nRunIds, align 4
  %77 = icmp slt i32 %75, %76
  br i1 %77, label %78, label %87

78:                                               ; preds = %72
  %79 = load ptr, ptr %6, align 8
  %80 = getelementptr inbounds %struct.Bmc3_ThData_t_, ptr %79, i32 0, i32 4
  %81 = load i32, ptr %80, align 4
  %82 = icmp ne i32 %81, 0
  br i1 %82, label %83, label %87

83:                                               ; preds = %78
  %84 = load ptr, ptr %6, align 8
  %85 = getelementptr inbounds %struct.Bmc3_ThData_t_, ptr %84, i32 0, i32 3
  %86 = load i32, ptr %85, align 8
  call void (i32, ptr, ...) @Abc_Print(i32 noundef 1, ptr noundef @.str.1, i32 noundef %86)
  br label %87

87:                                               ; preds = %83, %78, %72
  %88 = load ptr, ptr %6, align 8
  %89 = getelementptr inbounds %struct.Bmc3_ThData_t_, ptr %88, i32 0, i32 0
  %90 = load ptr, ptr %89, align 8
  %91 = getelementptr inbounds %struct.Wla_Man_t_, ptr %90, i32 0, i32 12
  %92 = load i32, ptr %91, align 8
  %93 = icmp sgt i32 %92, 1
  br i1 %93, label %94, label %134

94:                                               ; preds = %87
  %95 = load ptr, ptr %6, align 8
  %96 = getelementptr inbounds %struct.Bmc3_ThData_t_, ptr %95, i32 0, i32 3
  %97 = load i32, ptr %96, align 8
  %98 = load volatile i32, ptr @g_nRunIds, align 4
  %99 = icmp eq i32 %97, %98
  br i1 %99, label %100, label %134

100:                                              ; preds = %94
  %101 = load ptr, ptr %6, align 8
  %102 = getelementptr inbounds %struct.Bmc3_ThData_t_, ptr %101, i32 0, i32 0
  %103 = load ptr, ptr %102, align 8
  %104 = load ptr, ptr %6, align 8
  %105 = getelementptr inbounds %struct.Bmc3_ThData_t_, ptr %104, i32 0, i32 0
  %106 = load ptr, ptr %105, align 8
  %107 = getelementptr inbounds %struct.Wla_Man_t_, ptr %106, i32 0, i32 10
  %108 = load i32, ptr %107, align 8
  %109 = load i32, ptr %5, align 4
  %110 = add nsw i32 %108, %109
  %111 = load ptr, ptr %6, align 8
  %112 = getelementptr inbounds %struct.Bmc3_ThData_t_, ptr %111, i32 0, i32 3
  %113 = load i32, ptr %112, align 8
  %114 = call i32 @Wla_ManShrinkAbs(ptr noundef %103, i32 noundef %110, i32 noundef %113)
  store i32 %114, ptr %4, align 4
  %115 = load i32, ptr %5, align 4
  %116 = load ptr, ptr %6, align 8
  %117 = getelementptr inbounds %struct.Bmc3_ThData_t_, ptr %116, i32 0, i32 0
  %118 = load ptr, ptr %117, align 8
  %119 = getelementptr inbounds %struct.Wla_Man_t_, ptr %118, i32 0, i32 10
  %120 = load i32, ptr %119, align 8
  %121 = add nsw i32 %120, %115
  store i32 %121, ptr %119, align 8
  %122 = load i32, ptr %4, align 4
  %123 = icmp eq i32 %122, 1
  br i1 %123, label %124, label %133

124:                                              ; preds = %100
  %125 = load ptr, ptr %6, align 8
  %126 = getelementptr inbounds %struct.Bmc3_ThData_t_, ptr %125, i32 0, i32 0
  %127 = load ptr, ptr %126, align 8
  %128 = getelementptr inbounds %struct.Wla_Man_t_, ptr %127, i32 0, i32 11
  store i32 1, ptr %128, align 4
  %129 = call i32 @pthread_mutex_lock(ptr noundef @g_mutex) #8
  store i32 %129, ptr %3, align 4
  %130 = load volatile i32, ptr @g_nRunIds, align 4
  %131 = add nsw i32 %130, 1
  store volatile i32 %131, ptr @g_nRunIds, align 4
  %132 = call i32 @pthread_mutex_unlock(ptr noundef @g_mutex) #8
  store i32 %132, ptr %3, align 4
  br label %133

133:                                              ; preds = %124, %100
  br label %134

134:                                              ; preds = %133, %94, %87
  br label %135

135:                                              ; preds = %134, %69
  br label %136

136:                                              ; preds = %135, %64
  %137 = load ptr, ptr %7, align 8
  call void @Abc_NtkDelete(ptr noundef %137)
  %138 = load ptr, ptr %6, align 8
  %139 = getelementptr inbounds %struct.Bmc3_ThData_t_, ptr %138, i32 0, i32 1
  %140 = load ptr, ptr %139, align 8
  call void @Aig_ManStop(ptr noundef %140)
  %141 = load ptr, ptr %6, align 8
  %142 = icmp ne ptr %141, null
  br i1 %142, label %143, label %145

143:                                              ; preds = %136
  %144 = load ptr, ptr %6, align 8
  call void @free(ptr noundef %144) #8
  store ptr null, ptr %6, align 8
  br label %146

145:                                              ; preds = %136
  br label %146

146:                                              ; preds = %145, %143
  call void @pthread_exit(ptr noundef null) #9
  unreachable
}