; Function Attrs: noreturn nounwind uwtable
define noalias noundef nonnull ptr @Wla_Bmc3Thread(ptr noundef captures(none) %0) #5 {
  %2 = alloca %struct.Saig_ParBmc_t_, align 8
  %3 = getelementptr inbounds nuw i8, ptr %0, i64 8
  %4 = load ptr, ptr %3, align 8
  %5 = tail call ptr @Abc_NtkFromAigPhase(ptr noundef %4) #11
  call void @Saig_ParBmcSetDefaultParams(ptr noundef nonnull %2) #11
  %6 = getelementptr inbounds nuw i8, ptr %2, i64 144
  store ptr @Wla_CallBackToStop, ptr %6, align 8
  %7 = getelementptr inbounds nuw i8, ptr %0, i64 24
  %8 = load i32, ptr %7, align 8
  %9 = getelementptr inbounds nuw i8, ptr %2, i64 136
  store i32 %8, ptr %9, align 8
  %10 = load ptr, ptr %0, align 8
  %11 = getelementptr inbounds nuw i8, ptr %10, i64 8
  %12 = load ptr, ptr %11, align 8
  %13 = getelementptr inbounds nuw i8, ptr %12, i64 72
  %14 = load i32, ptr %13, align 8
  %.not = icmp eq i32 %14, 0
  br i1 %.not, label %20, label %15

15:                                               ; preds = %1
  %16 = getelementptr inbounds nuw i8, ptr %10, i64 80
  %17 = load i32, ptr %16, align 8
  %18 = add nsw i32 %17, 10
  %19 = getelementptr inbounds nuw i8, ptr %2, i64 4
  store i32 %18, ptr %19, align 4
  br label %20

20:                                               ; preds = %15, %1
  %21 = call i32 @Abc_NtkDarBmc3(ptr noundef %5, ptr noundef nonnull %2, i32 noundef 0) #11
  switch i32 %21, label %65 [
    i32 0, label %22
    i32 -1, label %31
  ]

22:                                               ; preds = %20
  %23 = getelementptr inbounds nuw i8, ptr %5, i64 312
  %24 = load ptr, ptr %23, align 8
  %25 = getelementptr inbounds nuw i8, ptr %0, i64 16
  %26 = load ptr, ptr %25, align 8
  store ptr %24, ptr %26, align 8
  store ptr null, ptr %23, align 8
  %27 = getelementptr inbounds nuw i8, ptr %0, i64 28
  %28 = load i32, ptr %27, align 4
  %.not36 = icmp eq i32 %28, 0
  br i1 %.not36, label %.sink.split, label %29

29:                                               ; preds = %22
  %30 = load i32, ptr %7, align 8
  call void (i32, ptr, ...) @Abc_Print(i32 poison, ptr noundef nonnull @.str, i32 noundef %30)
  br label %.sink.split

31:                                               ; preds = %20
  %32 = load i32, ptr %7, align 8
  %33 = load volatile i32, ptr @g_nRunIds, align 4
  %34 = icmp slt i32 %32, %33
  br i1 %34, label %35, label %39

35:                                               ; preds = %31
  %36 = getelementptr inbounds nuw i8, ptr %0, i64 28
  %37 = load i32, ptr %36, align 4
  %.not35 = icmp eq i32 %37, 0
  br i1 %.not35, label %39, label %38

38:                                               ; preds = %35
  call void (i32, ptr, ...) @Abc_Print(i32 poison, ptr noundef nonnull @.str.1, i32 noundef %32)
  br label %39

39:                                               ; preds = %38, %35, %31
  %40 = load ptr, ptr %0, align 8
  %41 = getelementptr inbounds nuw i8, ptr %40, i64 88
  %42 = load i32, ptr %41, align 8
  %43 = icmp sgt i32 %42, 1
  br i1 %43, label %44, label %65

44:                                               ; preds = %39
  %45 = load i32, ptr %7, align 8
  %46 = load volatile i32, ptr @g_nRunIds, align 4
  %47 = icmp eq i32 %45, %46
  br i1 %47, label %48, label %65

48:                                               ; preds = %44
  %49 = getelementptr inbounds nuw i8, ptr %40, i64 80
  %50 = load i32, ptr %49, align 8
  %51 = add nsw i32 %50, 10
  %52 = call i32 @Wla_ManShrinkAbs(ptr noundef nonnull %40, i32 noundef %51, i32 noundef %45) #11
  %53 = load ptr, ptr %0, align 8
  %54 = getelementptr inbounds nuw i8, ptr %53, i64 80
  %55 = load i32, ptr %54, align 8
  %56 = add nsw i32 %55, 10
  store i32 %56, ptr %54, align 8
  %57 = icmp eq i32 %52, 1
  br i1 %57, label %58, label %65

58:                                               ; preds = %48
  %59 = load ptr, ptr %0, align 8
  %60 = getelementptr inbounds nuw i8, ptr %59, i64 84
  store i32 1, ptr %60, align 4
  br label %.sink.split

.sink.split:                                      ; preds = %22, %29, %58
  %61 = call i32 @pthread_mutex_lock(ptr noundef nonnull @g_mutex) #11
  %62 = load volatile i32, ptr @g_nRunIds, align 4
  %63 = add nsw i32 %62, 1
  store volatile i32 %63, ptr @g_nRunIds, align 4
  %64 = call i32 @pthread_mutex_unlock(ptr noundef nonnull @g_mutex) #11
  br label %65

65:                                               ; preds = %.sink.split, %20, %48, %44, %39
  call void @Abc_NtkDelete(ptr noundef %5) #11
  %66 = load ptr, ptr %3, align 8
  call void @Aig_ManStop(ptr noundef %66) #11
  call void @free(ptr noundef nonnull %0) #11
  call void @pthread_exit(ptr noundef null) #12
  unreachable
}